target datalayout = "e-m:e-p270:32:32-p271:32:32-p272:64:64-i64:64-i128:128-f80:128-n8:16:32:64-S128"
target triple = "x86_64-unknown-linux-gnu"

%struct.MemoryRegionOps = type { ptr, ptr, ptr, ptr, i32, %struct.anon.13, %struct.anon.14 }
%struct.anon.13 = type { i32, i32, i8, ptr }
%struct.anon.14 = type { i32, i32, i8 }
%struct.MemoryRegion = type { %struct.Object, i8, i8, i8, i8, i8, i8, i8, i8, i8, i8, ptr, ptr, ptr, ptr, ptr, ptr, i32, i128, i64, ptr, i64, i8, i8, i8, i8, i8, ptr, i64, i32, %union.anon, %union.anon.0, %union.anon.1, ptr, i32, ptr, ptr, i8 }
%struct.Object = type { ptr, ptr, ptr, i32, ptr }
%union.anon = type { %struct.QTailQLink }
%struct.QTailQLink = type { ptr, ptr }
%union.anon.0 = type { %struct.QTailQLink }
%union.anon.1 = type { %struct.QTailQLink }
%struct.VFIOPCIDevice = type { %struct.PCIDevice, %struct.VFIODevice, %struct.VFIOINTx, i32, ptr, i64, i32, i64, ptr, i32, ptr, ptr, i32, i32, [6 x %struct.VFIOBAR], ptr, ptr, %struct.PCIHostDeviceAddress, %struct.QemuUUID, %struct.EventNotifier, %struct.EventNotifier, ptr, i32, i32, i32, i32, i32, i32, i32, i32, i32, i32, i32, i8, i8, i8, i8, i8, i8, i8, i8, i8, i8, i8, i8, i8, i8, i32, i8, i8, ptr, %struct.Notifier }
%struct.PCIDevice = type { %struct.DeviceState, i8, i8, ptr, ptr, ptr, ptr, ptr, i32, %struct.PCIReqIDCache, [64 x i8], [7 x %struct.PCIIORegion], %struct.AddressSpace, %struct.MemoryRegion, %struct.MemoryRegion, ptr, ptr, [3 x ptr], i8, i8, i32, i8, i32, ptr, ptr, ptr, ptr, ptr, ptr, %struct.MemoryRegion, %struct.MemoryRegion, %struct.MemoryRegion, ptr, i8, i32, i8, %struct.PCIExpressDevice, ptr, ptr, i32, i8, %struct.MemoryRegion, i32, ptr, ptr, ptr, ptr, ptr, i32 }
%struct.DeviceState = type { %struct.Object, ptr, ptr, i8, i8, i64, ptr, i32, i8, ptr, %struct.NamedGPIOListHead, %struct.NamedClockListHead, %struct.BusStateHead, i32, i32, i32, %struct.ResettableState, ptr, %struct.MemReentrancyGuard }
%struct.NamedGPIOListHead = type { ptr }
%struct.NamedClockListHead = type { ptr }
%struct.BusStateHead = type { ptr }
%struct.ResettableState = type { i32, i8, i8 }
%struct.MemReentrancyGuard = type { i8 }
%struct.PCIReqIDCache = type { ptr, i32 }
%struct.PCIIORegion = type { i64, i64, i8, ptr, ptr }
%struct.AddressSpace = type { %struct.rcu_head, ptr, ptr, ptr, i32, i32, ptr, %union.anon.4, %union.anon.5 }
%struct.rcu_head = type { ptr, ptr }
%union.anon.4 = type { %struct.QTailQLink }
%union.anon.5 = type { %struct.QTailQLink }
%struct.PCIExpressDevice = type { i8, i8, i8, i16, %struct.PCIEAERLog, i16, i16, i16, %struct.PCIESriovPF, %struct.PCIESriovVF }
%struct.PCIEAERLog = type { i16, i16, ptr }
%struct.PCIESriovPF = type { i16, [7 x i8], ptr, ptr }
%struct.PCIESriovVF = type { ptr, i16 }
%struct.VFIODevice = type { %struct.anon.6, %struct.anon.7, %struct.anon.8, ptr, ptr, ptr, ptr, ptr, i32, i32, i8, i8, i8, i8, i32, ptr, i32, i32, i32, ptr, ptr, i32, i8, i8 }
%struct.anon.6 = type { ptr, ptr }
%struct.anon.7 = type { ptr, ptr }
%struct.anon.8 = type { ptr, ptr }
%struct.VFIOINTx = type { i8, i8, i8, %struct.EventNotifier, %struct.EventNotifier, %struct.PCIINTxRoute, i32, ptr }
%struct.PCIINTxRoute = type { i32, i32 }
%struct.VFIOBAR = type { %struct.VFIORegion, ptr, i64, i8, i8, i8, %struct.anon.9 }
%struct.VFIORegion = type { ptr, i64, ptr, i64, i32, i32, ptr, i8 }
%struct.anon.9 = type { ptr }
%struct.PCIHostDeviceAddress = type { i32, i32, i32, i32 }
%struct.QemuUUID = type { %union.anon.10 }
%union.anon.10 = type { %struct.anon.11 }
%struct.anon.11 = type { i32, i16, i16, i8, i8, [6 x i8] }
%struct.EventNotifier = type { i32, i32, i8 }
%struct.Notifier = type { ptr, %struct.anon.12 }
%struct.anon.12 = type { ptr, ptr }

@.str.71 = private unnamed_addr constant [7 x i8] c"device\00", align 1
@.str.72 = private unnamed_addr constant [101 x i8] c"/home/dtcxzyw/WorkSpace/Projects/compilers/llvm-opt-benchmark/bench/qemu/qemu/include/hw/qdev-core.h\00", align 1
@__func__.DEVICE = private unnamed_addr constant [7 x i8] c"DEVICE\00", align 1
@.str.167 = private unnamed_addr constant [85 x i8] c"Device at %s is known to cause system instability issues during option rom execution\00", align 1
@.str.168 = private unnamed_addr constant [48 x i8] c"Proceeding anyway since user specified romfile\0A\00", align 1
@.str.169 = private unnamed_addr constant [18 x i8] c"%s(%s) failed: %m\00", align 1
@__func__.vfio_pci_size_rom = private unnamed_addr constant [18 x i8] c"vfio_pci_size_rom\00", align 1
@.str.170 = private unnamed_addr constant [7 x i8] c"rombar\00", align 1
@.str.171 = private unnamed_addr constant [66 x i8] c"Proceeding anyway since user specified non zero value for rombar\0A\00", align 1
@.str.172 = private unnamed_addr constant [80 x i8] c"Rom loading for device at %s has been disabled due to system instability issues\00", align 1
@.str.173 = private unnamed_addr constant [38 x i8] c"Specify rombar=1 or romfile to force\0A\00", align 1
@.str.174 = private unnamed_addr constant [13 x i8] c"vfio[%s].rom\00", align 1
@vfio_rom_ops = internal constant %struct.MemoryRegionOps { ptr @vfio_rom_read, ptr @vfio_rom_write, ptr null, ptr null, i32 2, %struct.anon.13 zeroinitializer, %struct.anon.14 zeroinitializer }, align 8

; Function Attrs: nounwind sspstrong uwtable
define internal i32 @le32_to_cpu(i32 noundef %v) #0 {
entry:
  %v.addr = alloca i32, align 4
  store i32 %v, ptr %v.addr, align 4
  %0 = load i32, ptr %v.addr, align 4
  ret i32 %0
}

; Function Attrs: nounwind sspstrong uwtable
define internal ptr @DEVICE(ptr noundef %obj) #0 {
entry:
  %obj.addr = alloca ptr, align 8
  store ptr %obj, ptr %obj.addr, align 8
  %0 = load ptr, ptr %obj.addr, align 8
  %call = call ptr @object_dynamic_cast_assert(ptr noundef %0, ptr noundef @.str.71, ptr noundef @.str.72, i32 noundef 77, ptr noundef @__func__.DEVICE)
  ret ptr %call
}

; Function Attrs: nounwind sspstrong uwtable
define internal i32 @cpu_to_le32(i32 noundef %v) #0 {
entry:
  %v.addr = alloca i32, align 4
  store i32 %v, ptr %v.addr, align 4
  %0 = load i32, ptr %v.addr, align 4
  ret i32 %0
}

; Function Attrs: nounwind sspstrong uwtable
define internal void @vfio_pci_size_rom(ptr noundef %vdev) #0 {
entry:
  %vdev.addr = alloca ptr, align 8
  %orig = alloca i32, align 4
  %size = alloca i32, align 4
  %offset = alloca i64, align 8
  %dev = alloca ptr, align 8
  %name = alloca ptr, align 8
  %fd = alloca i32, align 4
  store ptr %vdev, ptr %vdev.addr, align 8
  %call = call i32 @cpu_to_le32(i32 noundef -2048)
  store i32 %call, ptr %size, align 4
  %0 = load ptr, ptr %vdev.addr, align 8
  %config_offset = getelementptr inbounds %struct.VFIOPCIDevice, ptr %0, i32 0, i32 5
  %1 = load i64, ptr %config_offset, align 8
  %add = add i64 %1, 48
  store i64 %add, ptr %offset, align 8
  %2 = load ptr, ptr %vdev.addr, align 8
  %call1 = call ptr @DEVICE(ptr noundef %2)
  store ptr %call1, ptr %dev, align 8
  %3 = load ptr, ptr %vdev.addr, align 8
  %vbasedev = getelementptr inbounds %struct.VFIOPCIDevice, ptr %3, i32 0, i32 1
  %fd2 = getelementptr inbounds %struct.VFIODevice, ptr %vbasedev, i32 0, i32 8
  %4 = load i32, ptr %fd2, align 8
  store i32 %4, ptr %fd, align 4
  %5 = load ptr, ptr %vdev.addr, align 8
  %pdev = getelementptr inbounds %struct.VFIOPCIDevice, ptr %5, i32 0, i32 0
  %romfile = getelementptr inbounds %struct.PCIDevice, ptr %pdev, i32 0, i32 38
  %6 = load ptr, ptr %romfile, align 16
  %tobool = icmp ne ptr %6, null
  br i1 %tobool, label %if.then, label %lor.lhs.false

lor.lhs.false:                                    ; preds = %entry
  %7 = load ptr, ptr %vdev.addr, align 8
  %pdev3 = getelementptr inbounds %struct.VFIOPCIDevice, ptr %7, i32 0, i32 0
  %rom_bar = getelementptr inbounds %struct.PCIDevice, ptr %pdev3, i32 0, i32 42
  %8 = load i32, ptr %rom_bar, align 16
  %tobool4 = icmp ne i32 %8, 0
  br i1 %tobool4, label %if.end13, label %if.then

if.then:                                          ; preds = %lor.lhs.false, %entry
  %9 = load ptr, ptr %vdev.addr, align 8
  %call5 = call zeroext i1 @vfio_opt_rom_in_denylist(ptr noundef %9)
  br i1 %call5, label %land.lhs.true, label %if.end

land.lhs.true:                                    ; preds = %if.then
  %10 = load ptr, ptr %vdev.addr, align 8
  %pdev6 = getelementptr inbounds %struct.VFIOPCIDevice, ptr %10, i32 0, i32 0
  %romfile7 = getelementptr inbounds %struct.PCIDevice, ptr %pdev6, i32 0, i32 38
  %11 = load ptr, ptr %romfile7, align 16
  %tobool8 = icmp ne ptr %11, null
  br i1 %tobool8, label %if.then9, label %if.end

if.then9:                                         ; preds = %land.lhs.true
  %12 = load ptr, ptr %vdev.addr, align 8
  %vbasedev10 = getelementptr inbounds %struct.VFIOPCIDevice, ptr %12, i32 0, i32 1
  %name11 = getelementptr inbounds %struct.VFIODevice, ptr %vbasedev10, i32 0, i32 6
  %13 = load ptr, ptr %name11, align 8
  call void (ptr, ...) @warn_report(ptr noundef @.str.167, ptr noundef %13)
  %call12 = call i32 (ptr, ...) @error_printf(ptr noundef @.str.168)
  br label %if.end

if.end:                                           ; preds = %if.then9, %land.lhs.true, %if.then
  br label %return

if.end13:                                         ; preds = %lor.lhs.false
  %14 = load i32, ptr %fd, align 4
  %15 = load i64, ptr %offset, align 8
  %call14 = call i64 @pread64(i32 noundef %14, ptr noundef %orig, i64 noundef 4, i64 noundef %15)
  %cmp = icmp ne i64 %call14, 4
  br i1 %cmp, label %if.then24, label %lor.lhs.false15

lor.lhs.false15:                                  ; preds = %if.end13
  %16 = load i32, ptr %fd, align 4
  %17 = load i64, ptr %offset, align 8
  %call16 = call i64 @pwrite64(i32 noundef %16, ptr noundef %size, i64 noundef 4, i64 noundef %17)
  %cmp17 = icmp ne i64 %call16, 4
  br i1 %cmp17, label %if.then24, label %lor.lhs.false18

lor.lhs.false18:                                  ; preds = %lor.lhs.false15
  %18 = load i32, ptr %fd, align 4
  %19 = load i64, ptr %offset, align 8
  %call19 = call i64 @pread64(i32 noundef %18, ptr noundef %size, i64 noundef 4, i64 noundef %19)
  %cmp20 = icmp ne i64 %call19, 4
  br i1 %cmp20, label %if.then24, label %lor.lhs.false21

lor.lhs.false21:                                  ; preds = %lor.lhs.false18
  %20 = load i32, ptr %fd, align 4
  %21 = load i64, ptr %offset, align 8
  %call22 = call i64 @pwrite64(i32 noundef %20, ptr noundef %orig, i64 noundef 4, i64 noundef %21)
  %cmp23 = icmp ne i64 %call22, 4
  br i1 %cmp23, label %if.then24, label %if.end27

if.then24:                                        ; preds = %lor.lhs.false21, %lor.lhs.false18, %lor.lhs.false15, %if.end13
  %22 = load ptr, ptr %vdev.addr, align 8
  %vbasedev25 = getelementptr inbounds %struct.VFIOPCIDevice, ptr %22, i32 0, i32 1
  %name26 = getelementptr inbounds %struct.VFIODevice, ptr %vbasedev25, i32 0, i32 6
  %23 = load ptr, ptr %name26, align 8
  call void (ptr, ...) @error_report(ptr noundef @.str.169, ptr noundef @__func__.vfio_pci_size_rom, ptr noundef %23)
  br label %return

if.end27:                                         ; preds = %lor.lhs.false21
  %24 = load i32, ptr %size, align 4
  %call28 = call i32 @le32_to_cpu(i32 noundef %24)
  %and = and i32 %call28, -2048
  %not = xor i32 %and, -1
  %add29 = add i32 %not, 1
  store i32 %add29, ptr %size, align 4
  %25 = load i32, ptr %size, align 4
  %tobool30 = icmp ne i32 %25, 0
  br i1 %tobool30, label %if.end32, label %if.then31

if.then31:                                        ; preds = %if.end27
  br label %return

if.end32:                                         ; preds = %if.end27
  %26 = load ptr, ptr %vdev.addr, align 8
  %call33 = call zeroext i1 @vfio_opt_rom_in_denylist(ptr noundef %26)
  br i1 %call33, label %if.then34, label %if.end48

if.then34:                                        ; preds = %if.end32
  %27 = load ptr, ptr %dev, align 8
  %opts = getelementptr inbounds %struct.DeviceState, ptr %27, i32 0, i32 6
  %28 = load ptr, ptr %opts, align 8
  %tobool35 = icmp ne ptr %28, null
  br i1 %tobool35, label %land.lhs.true36, label %if.else

land.lhs.true36:                                  ; preds = %if.then34
  %29 = load ptr, ptr %dev, align 8
  %opts37 = getelementptr inbounds %struct.DeviceState, ptr %29, i32 0, i32 6
  %30 = load ptr, ptr %opts37, align 8
  %call38 = call i32 @qdict_haskey(ptr noundef %30, ptr noundef @.str.170)
  %tobool39 = icmp ne i32 %call38, 0
  br i1 %tobool39, label %if.then40, label %if.else

if.then40:                                        ; preds = %land.lhs.true36
  %31 = load ptr, ptr %vdev.addr, align 8
  %vbasedev41 = getelementptr inbounds %struct.VFIOPCIDevice, ptr %31, i32 0, i32 1
  %name42 = getelementptr inbounds %struct.VFIODevice, ptr %vbasedev41, i32 0, i32 6
  %32 = load ptr, ptr %name42, align 8
  call void (ptr, ...) @warn_report(ptr noundef @.str.167, ptr noundef %32)
  %call43 = call i32 (ptr, ...) @error_printf(ptr noundef @.str.171)
  br label %if.end47

if.else:                                          ; preds = %land.lhs.true36, %if.then34
  %33 = load ptr, ptr %vdev.addr, align 8
  %vbasedev44 = getelementptr inbounds %struct.VFIOPCIDevice, ptr %33, i32 0, i32 1
  %name45 = getelementptr inbounds %struct.VFIODevice, ptr %vbasedev44, i32 0, i32 6
  %34 = load ptr, ptr %name45, align 8
  call void (ptr, ...) @warn_report(ptr noundef @.str.172, ptr noundef %34)
  %call46 = call i32 (ptr, ...) @error_printf(ptr noundef @.str.173)
  br label %return

if.end47:                                         ; preds = %if.then40
  br label %if.end48

if.end48:                                         ; preds = %if.end47, %if.end32
  %35 = load ptr, ptr %vdev.addr, align 8
  %vbasedev49 = getelementptr inbounds %struct.VFIOPCIDevice, ptr %35, i32 0, i32 1
  %name50 = getelementptr inbounds %struct.VFIODevice, ptr %vbasedev49, i32 0, i32 6
  %36 = load ptr, ptr %name50, align 8
  %37 = load i32, ptr %size, align 4
  call void @trace_vfio_pci_size_rom(ptr noundef %36, i32 noundef %37)
  %38 = load ptr, ptr %vdev.addr, align 8
  %vbasedev51 = getelementptr inbounds %struct.VFIOPCIDevice, ptr %38, i32 0, i32 1
  %name52 = getelementptr inbounds %struct.VFIODevice, ptr %vbasedev51, i32 0, i32 6
  %39 = load ptr, ptr %name52, align 8
  %call53 = call noalias ptr (ptr, ...) @g_strdup_printf(ptr noundef @.str.174, ptr noundef %39)
  store ptr %call53, ptr %name, align 8
  %40 = load ptr, ptr %vdev.addr, align 8
  %pdev54 = getelementptr inbounds %struct.VFIOPCIDevice, ptr %40, i32 0, i32 0
  %rom = getelementptr inbounds %struct.PCIDevice, ptr %pdev54, i32 0, i32 41
  %41 = load ptr, ptr %vdev.addr, align 8
  %42 = load ptr, ptr %vdev.addr, align 8
  %43 = load ptr, ptr %name, align 8
  %44 = load i32, ptr %size, align 4
  %conv = zext i32 %44 to i64
  call void @memory_region_init_io(ptr noundef %rom, ptr noundef %41, ptr noundef @vfio_rom_ops, ptr noundef %42, ptr noundef %43, i64 noundef %conv)
  %45 = load ptr, ptr %name, align 8
  call void @g_free(ptr noundef %45)
  %46 = load ptr, ptr %vdev.addr, align 8
  %pdev55 = getelementptr inbounds %struct.VFIOPCIDevice, ptr %46, i32 0, i32 0
  %47 = load ptr, ptr %vdev.addr, align 8
  %pdev56 = getelementptr inbounds %struct.VFIOPCIDevice, ptr %47, i32 0, i32 0
  %rom57 = getelementptr inbounds %struct.PCIDevice, ptr %pdev56, i32 0, i32 41
  call void @pci_register_bar(ptr noundef %pdev55, i32 noundef 6, i8 noundef zeroext 0, ptr noundef %rom57)
  %48 = load ptr, ptr %vdev.addr, align 8
  %rom_read_failed = getelementptr inbounds %struct.VFIOPCIDevice, ptr %48, i32 0, i32 39
  store i8 0, ptr %rom_read_failed, align 2
  br label %return

return:                                           ; preds = %if.end48, %if.else, %if.then31, %if.then24, %if.end
  ret void
}