; Function Attrs: nounwind sspstrong uwtable
define internal fastcc void @vfio_pci_size_rom(ptr noundef %vdev) unnamed_addr #0 {
entry:
  %orig = alloca i32, align 4
  %size = alloca i32, align 4
  store i32 -2048, ptr %size, align 4
  %config_offset = getelementptr inbounds nuw i8, ptr %vdev, i64 2824
  %0 = load i64, ptr %config_offset, align 8
  %add = add i64 %0, 48
  %call.i = tail call ptr @object_dynamic_cast_assert(ptr noundef %vdev, ptr noundef nonnull @.str.71, ptr noundef nonnull @.str.72, i32 noundef 77, ptr noundef nonnull @__func__.DEVICE) #23
  %fd2 = getelementptr inbounds nuw i8, ptr %vdev, i64 2696
  %1 = load i32, ptr %fd2, align 8
  %romfile = getelementptr inbounds nuw i8, ptr %vdev, i64 2256
  %2 = load ptr, ptr %romfile, align 16
  %tobool.not = icmp eq ptr %2, null
  br i1 %tobool.not, label %lor.lhs.false, label %if.then

lor.lhs.false:                                    ; preds = %entry
  %rom_bar = getelementptr inbounds nuw i8, ptr %vdev, i64 2544
  %3 = load i32, ptr %rom_bar, align 16
  %tobool4.not = icmp eq i32 %3, 0
  br i1 %tobool4.not, label %if.then, label %if.end13

if.then:                                          ; preds = %lor.lhs.false, %entry
  %call5 = tail call zeroext i1 @vfio_opt_rom_in_denylist(ptr noundef nonnull %vdev) #23
  br i1 %call5, label %land.lhs.true, label %return

land.lhs.true:                                    ; preds = %if.then
  %4 = load ptr, ptr %romfile, align 16
  %tobool8.not = icmp eq ptr %4, null
  br i1 %tobool8.not, label %return, label %if.then9

if.then9:                                         ; preds = %land.lhs.true
  %name11 = getelementptr inbounds nuw i8, ptr %vdev, i64 2680
  %5 = load ptr, ptr %name11, align 8
  tail call void (ptr, ...) @warn_report(ptr noundef nonnull @.str.167, ptr noundef %5) #23
  %call12 = tail call i32 (ptr, ...) @error_printf(ptr noundef nonnull @.str.168) #23
  br label %return

if.end13:                                         ; preds = %lor.lhs.false
  %call14 = call i64 @pread64(i32 noundef %1, ptr noundef nonnull %orig, i64 noundef 4, i64 noundef %add) #23
  %cmp.not = icmp eq i64 %call14, 4
  br i1 %cmp.not, label %lor.lhs.false15, label %if.then24

lor.lhs.false15:                                  ; preds = %if.end13
  %call16 = call i64 @pwrite64(i32 noundef %1, ptr noundef nonnull %size, i64 noundef 4, i64 noundef %add) #23
  %cmp17.not = icmp eq i64 %call16, 4
  br i1 %cmp17.not, label %lor.lhs.false18, label %if.then24

lor.lhs.false18:                                  ; preds = %lor.lhs.false15
  %call19 = call i64 @pread64(i32 noundef %1, ptr noundef nonnull %size, i64 noundef 4, i64 noundef %add) #23
  %cmp20.not = icmp eq i64 %call19, 4
  br i1 %cmp20.not, label %lor.lhs.false21, label %if.then24

lor.lhs.false21:                                  ; preds = %lor.lhs.false18
  %call22 = call i64 @pwrite64(i32 noundef %1, ptr noundef nonnull %orig, i64 noundef 4, i64 noundef %add) #23
  %cmp23.not = icmp eq i64 %call22, 4
  br i1 %cmp23.not, label %if.end27, label %if.then24

if.then24:                                        ; preds = %lor.lhs.false21, %lor.lhs.false18, %lor.lhs.false15, %if.end13
  %name26 = getelementptr inbounds nuw i8, ptr %vdev, i64 2680
  %6 = load ptr, ptr %name26, align 8
  call void (ptr, ...) @error_report(ptr noundef nonnull @.str.169, ptr noundef nonnull @__func__.vfio_pci_size_rom, ptr noundef %6) #23
  br label %return

if.end27:                                         ; preds = %lor.lhs.false21
  %7 = load i32, ptr %size, align 4
  %and = and i32 %7, -2048
  %add29 = sub i32 0, %and
  store i32 %add29, ptr %size, align 4
  %tobool30.not = icmp eq i32 %and, 0
  br i1 %tobool30.not, label %return, label %if.end32

if.end32:                                         ; preds = %if.end27
  %call33 = call zeroext i1 @vfio_opt_rom_in_denylist(ptr noundef nonnull %vdev) #23
  br i1 %call33, label %if.then34, label %if.end48

if.then34:                                        ; preds = %if.end32
  %opts = getelementptr inbounds nuw i8, ptr %call.i, i64 72
  %8 = load ptr, ptr %opts, align 8
  %tobool35.not = icmp eq ptr %8, null
  br i1 %tobool35.not, label %if.else, label %land.lhs.true36

land.lhs.true36:                                  ; preds = %if.then34
  %call38 = call i32 @qdict_haskey(ptr noundef nonnull %8, ptr noundef nonnull @.str.170) #23
  %tobool39.not = icmp eq i32 %call38, 0
  br i1 %tobool39.not, label %if.else, label %if.then40

if.then40:                                        ; preds = %land.lhs.true36
  %name42 = getelementptr inbounds nuw i8, ptr %vdev, i64 2680
  %9 = load ptr, ptr %name42, align 8
  call void (ptr, ...) @warn_report(ptr noundef nonnull @.str.167, ptr noundef %9) #23
  %call43 = call i32 (ptr, ...) @error_printf(ptr noundef nonnull @.str.171) #23
  br label %if.end48

if.else:                                          ; preds = %land.lhs.true36, %if.then34
  %name45 = getelementptr inbounds nuw i8, ptr %vdev, i64 2680
  %10 = load ptr, ptr %name45, align 8
  call void (ptr, ...) @warn_report(ptr noundef nonnull @.str.172, ptr noundef %10) #23
  %call46 = call i32 (ptr, ...) @error_printf(ptr noundef nonnull @.str.173) #23
  br label %return

if.end48:                                         ; preds = %if.then40, %if.end32
  %name50 = getelementptr inbounds nuw i8, ptr %vdev, i64 2680
  %11 = load ptr, ptr %name50, align 8
  %12 = load i32, ptr %size, align 4
  call fastcc void @trace_vfio_pci_size_rom(ptr noundef %11, i32 noundef %12)
  %13 = load ptr, ptr %name50, align 8
  %call53 = call noalias ptr (ptr, ...) @g_strdup_printf(ptr noundef nonnull @.str.174, ptr noundef %13) #23
  %rom = getelementptr inbounds nuw i8, ptr %vdev, i64 2272
  %14 = load i32, ptr %size, align 4
  %conv = zext i32 %14 to i64
  call void @memory_region_init_io(ptr noundef nonnull %rom, ptr noundef nonnull %vdev, ptr noundef nonnull @vfio_rom_ops, ptr noundef nonnull %vdev, ptr noundef %call53, i64 noundef %conv) #23
  call void @g_free(ptr noundef %call53) #23
  call void @pci_register_bar(ptr noundef nonnull %vdev, i32 noundef 6, i8 noundef zeroext 0, ptr noundef nonnull %rom) #23
  %rom_read_failed = getelementptr inbounds nuw i8, ptr %vdev, i64 3546
  store i8 0, ptr %rom_read_failed, align 2
  br label %return

return:                                           ; preds = %if.end27, %if.then, %land.lhs.true, %if.then9, %if.end48, %if.else, %if.then24
  ret void
}